target datalayout = "e-m:e-p270:32:32-p271:32:32-p272:64:64-i64:64-i128:128-f80:128-n8:16:32:64-S128"
target triple = "x86_64-pc-linux-gnu"

%struct.ec_group_st = type { ptr, ptr, %struct.bignum_st, %struct.bignum_st, i32, ptr, %struct.bignum_st, %struct.bignum_st, %struct.bignum_st, i32, ptr, %struct.bignum_st }
%struct.bignum_st = type { ptr, i32, i32, i32, i32 }
%struct.ec_point_st = type { ptr, %struct.bignum_st, %struct.bignum_st, %struct.bignum_st }

@.str = private unnamed_addr constant [118 x i8] c"generated/home/dtcxzyw/WorkSpace/Projects/compilers/llvm-opt-benchmark/bench/libquic/libquic/boringssl/crypto/ec/ec.c\00", align 1

; Function Attrs: nounwind uwtable
define hidden i32 @EC_POINT_copy(ptr noundef %0, ptr noundef %1) #1 {
  %3 = alloca i32, align 4
  %4 = alloca ptr, align 8
  %5 = alloca ptr, align 8
  store ptr %0, ptr %4, align 8, !tbaa !29
  store ptr %1, ptr %5, align 8, !tbaa !29
  %6 = load ptr, ptr %4, align 8, !tbaa !29
  %7 = getelementptr inbounds nuw %struct.ec_point_st, ptr %6, i32 0, i32 0
  %8 = load ptr, ptr %7, align 8, !tbaa !31
  %9 = load ptr, ptr %5, align 8, !tbaa !29
  %10 = getelementptr inbounds nuw %struct.ec_point_st, ptr %9, i32 0, i32 0
  %11 = load ptr, ptr %10, align 8, !tbaa !31
  %12 = icmp ne ptr %8, %11
  br i1 %12, label %13, label %14

13:                                               ; preds = %2
  call void @ERR_put_error(i32 noundef 15, i32 noundef 0, i32 noundef 106, ptr noundef @.str, i32 noundef 723)
  store i32 0, ptr %3, align 4
  br label %23

14:                                               ; preds = %2
  %15 = load ptr, ptr %4, align 8, !tbaa !29
  %16 = load ptr, ptr %5, align 8, !tbaa !29
  %17 = icmp eq ptr %15, %16
  br i1 %17, label %18, label %19

18:                                               ; preds = %14
  store i32 1, ptr %3, align 4
  br label %23

19:                                               ; preds = %14
  %20 = load ptr, ptr %4, align 8, !tbaa !29
  %21 = load ptr, ptr %5, align 8, !tbaa !29
  %22 = call i32 @ec_GFp_simple_point_copy(ptr noundef %20, ptr noundef %21)
  store i32 %22, ptr %3, align 4
  br label %23

23:                                               ; preds = %19, %18, %13
  %24 = load i32, ptr %3, align 4
  ret i32 %24
}

; Function Attrs: nounwind uwtable
define hidden ptr @EC_POINT_new(ptr noundef %0) #1 {
  %2 = alloca ptr, align 8
  %3 = alloca ptr, align 8
  %4 = alloca ptr, align 8
  %5 = alloca i32, align 4
  store ptr %0, ptr %3, align 8, !tbaa !13
  call void @llvm.lifetime.start.p0(i64 8, ptr %4) #7
  %6 = load ptr, ptr %3, align 8, !tbaa !13
  %7 = icmp eq ptr %6, null
  br i1 %7, label %8, label %9

8:                                                ; preds = %1
  call void @ERR_put_error(i32 noundef 15, i32 noundef 0, i32 noundef 67, ptr noundef @.str, i32 noundef 680)
  store ptr null, ptr %2, align 8
  store i32 1, ptr %5, align 4
  br label %27

9:                                                ; preds = %1
  %10 = call noalias ptr @malloc(i64 noundef 80) #8
  store ptr %10, ptr %4, align 8, !tbaa !29
  %11 = load ptr, ptr %4, align 8, !tbaa !29
  %12 = icmp eq ptr %11, null
  br i1 %12, label %13, label %14

13:                                               ; preds = %9
  call void @ERR_put_error(i32 noundef 15, i32 noundef 0, i32 noundef 65, ptr noundef @.str, i32 noundef 686)
  store ptr null, ptr %2, align 8
  store i32 1, ptr %5, align 4
  br label %27

14:                                               ; preds = %9
  %15 = load ptr, ptr %3, align 8, !tbaa !13
  %16 = getelementptr inbounds nuw %struct.ec_group_st, ptr %15, i32 0, i32 0
  %17 = load ptr, ptr %16, align 8, !tbaa !15
  %18 = load ptr, ptr %4, align 8, !tbaa !29
  %19 = getelementptr inbounds nuw %struct.ec_point_st, ptr %18, i32 0, i32 0
  store ptr %17, ptr %19, align 8, !tbaa !31
  %20 = load ptr, ptr %4, align 8, !tbaa !29
  %21 = call i32 @ec_GFp_simple_point_init(ptr noundef %20)
  %22 = icmp ne i32 %21, 0
  br i1 %22, label %25, label %23

23:                                               ; preds = %14
  %24 = load ptr, ptr %4, align 8, !tbaa !29
  call void @free(ptr noundef %24) #7
  store ptr null, ptr %2, align 8
  store i32 1, ptr %5, align 4
  br label %27

25:                                               ; preds = %14
  %26 = load ptr, ptr %4, align 8, !tbaa !29
  store ptr %26, ptr %2, align 8
  store i32 1, ptr %5, align 4
  br label %27

27:                                               ; preds = %25, %23, %13, %8
  call void @llvm.lifetime.end.p0(i64 8, ptr %4) #7
  %28 = load ptr, ptr %2, align 8
  ret ptr %28
}

; Function Attrs: nounwind uwtable
define hidden i32 @EC_GROUP_set_generator(ptr noundef %0, ptr noundef %1, ptr noundef %2, ptr noundef %3) #1 {
  %5 = alloca i32, align 4
  %6 = alloca ptr, align 8
  %7 = alloca ptr, align 8
  %8 = alloca ptr, align 8
  %9 = alloca ptr, align 8
  store ptr %0, ptr %6, align 8, !tbaa !13
  store ptr %1, ptr %7, align 8, !tbaa !29
  store ptr %2, ptr %8, align 8, !tbaa !22
  store ptr %3, ptr %9, align 8, !tbaa !22
  %10 = load ptr, ptr %6, align 8, !tbaa !13
  %11 = getelementptr inbounds nuw %struct.ec_group_st, ptr %10, i32 0, i32 4
  %12 = load i32, ptr %11, align 8, !tbaa !30
  %13 = icmp ne i32 %12, 0
  br i1 %13, label %19, label %14

14:                                               ; preds = %4
  %15 = load ptr, ptr %6, align 8, !tbaa !13
  %16 = getelementptr inbounds nuw %struct.ec_group_st, ptr %15, i32 0, i32 1
  %17 = load ptr, ptr %16, align 8, !tbaa !28
  %18 = icmp ne ptr %17, null
  br i1 %18, label %19, label %20

19:                                               ; preds = %14, %4
  store i32 0, ptr %5, align 4
  br label %51

20:                                               ; preds = %14
  %21 = load ptr, ptr %6, align 8, !tbaa !13
  %22 = call ptr @EC_POINT_new(ptr noundef %21)
  %23 = load ptr, ptr %6, align 8, !tbaa !13
  %24 = getelementptr inbounds nuw %struct.ec_group_st, ptr %23, i32 0, i32 1
  store ptr %22, ptr %24, align 8, !tbaa !28
  %25 = load ptr, ptr %6, align 8, !tbaa !13
  %26 = getelementptr inbounds nuw %struct.ec_group_st, ptr %25, i32 0, i32 1
  %27 = load ptr, ptr %26, align 8, !tbaa !28
  %28 = icmp ne ptr %27, null
  br i1 %28, label %29, label %48

29:                                               ; preds = %20
  %30 = load ptr, ptr %6, align 8, !tbaa !13
  %31 = getelementptr inbounds nuw %struct.ec_group_st, ptr %30, i32 0, i32 1
  %32 = load ptr, ptr %31, align 8, !tbaa !28
  %33 = load ptr, ptr %7, align 8, !tbaa !29
  %34 = call i32 @EC_POINT_copy(ptr noundef %32, ptr noundef %33)
  %35 = icmp ne i32 %34, 0
  br i1 %35, label %36, label %48

36:                                               ; preds = %29
  %37 = load ptr, ptr %6, align 8, !tbaa !13
  %38 = getelementptr inbounds nuw %struct.ec_group_st, ptr %37, i32 0, i32 2
  %39 = load ptr, ptr %8, align 8, !tbaa !22
  %40 = call ptr @BN_copy(ptr noundef %38, ptr noundef %39)
  %41 = icmp ne ptr %40, null
  br i1 %41, label %42, label %48

42:                                               ; preds = %36
  %43 = load ptr, ptr %6, align 8, !tbaa !13
  %44 = getelementptr inbounds nuw %struct.ec_group_st, ptr %43, i32 0, i32 3
  %45 = load ptr, ptr %9, align 8, !tbaa !22
  %46 = call ptr @BN_copy(ptr noundef %44, ptr noundef %45)
  %47 = icmp ne ptr %46, null
  br label %48

48:                                               ; preds = %42, %36, %29, %20
  %49 = phi i1 [ false, %36 ], [ false, %29 ], [ false, %20 ], [ %47, %42 ]
  %50 = zext i1 %49 to i32
  store i32 %50, ptr %5, align 4
  br label %51

51:                                               ; preds = %48, %19
  %52 = load i32, ptr %5, align 4
  ret i32 %52
}