; Function Attrs: nounwind uwtable
define hidden range(i32 0, 2) i32 @EC_GROUP_set_generator(ptr noundef %0, ptr noundef %1, ptr noundef %2, ptr noundef %3) local_unnamed_addr #1 {
  %5 = getelementptr inbounds nuw i8, ptr %0, i64 64
  %6 = load i32, ptr %5, align 8, !tbaa !22
  %.not = icmp eq i32 %6, 0
  br i1 %.not, label %7, label %31

7:                                                ; preds = %4
  %8 = getelementptr inbounds nuw i8, ptr %0, i64 8
  %9 = load ptr, ptr %8, align 8, !tbaa !21
  %.not12 = icmp eq ptr %9, null
  br i1 %.not12, label %10, label %31

10:                                               ; preds = %7
  %11 = tail call noalias dereferenceable_or_null(80) ptr @malloc(i64 noundef 80) #12
  %12 = icmp eq ptr %11, null
  br i1 %12, label %13, label %14

13:                                               ; preds = %10
  tail call void @ERR_put_error(i32 noundef 15, i32 noundef 0, i32 noundef 65, ptr noundef nonnull @.str, i32 noundef 686) #11
  br label %EC_POINT_new.exit.thread

14:                                               ; preds = %10
  %15 = load ptr, ptr %0, align 8, !tbaa !11
  store ptr %15, ptr %11, align 8, !tbaa !23
  %16 = tail call i32 @ec_GFp_simple_point_init(ptr noundef nonnull %11) #11
  %.not.i = icmp eq i32 %16, 0
  br i1 %.not.i, label %17, label %18

17:                                               ; preds = %14
  tail call void @free(ptr noundef nonnull %11) #11
  br label %EC_POINT_new.exit.thread

EC_POINT_new.exit.thread:                         ; preds = %13, %17
  store ptr null, ptr %8, align 8, !tbaa !21
  br label %31

18:                                               ; preds = %14
  store ptr %11, ptr %8, align 8, !tbaa !21
  %19 = load ptr, ptr %11, align 8, !tbaa !23
  %20 = load ptr, ptr %1, align 8, !tbaa !23
  %.not.i16 = icmp eq ptr %19, %20
  br i1 %.not.i16, label %21, label %EC_POINT_copy.exit.thread

EC_POINT_copy.exit.thread:                        ; preds = %18
  tail call void @ERR_put_error(i32 noundef 15, i32 noundef 0, i32 noundef 106, ptr noundef nonnull @.str, i32 noundef 723) #11
  br label %31

21:                                               ; preds = %18
  %22 = icmp eq ptr %11, %1
  br i1 %22, label %EC_POINT_copy.exit.thread22, label %EC_POINT_copy.exit

EC_POINT_copy.exit:                               ; preds = %21
  %23 = tail call i32 @ec_GFp_simple_point_copy(ptr noundef nonnull %11, ptr noundef nonnull %1) #11
  %.not14 = icmp eq i32 %23, 0
  br i1 %.not14, label %31, label %EC_POINT_copy.exit.thread22

EC_POINT_copy.exit.thread22:                      ; preds = %21, %EC_POINT_copy.exit
  %24 = getelementptr inbounds nuw i8, ptr %0, i64 16
  %25 = tail call ptr @BN_copy(ptr noundef nonnull %24, ptr noundef %2) #11
  %.not15 = icmp eq ptr %25, null
  br i1 %.not15, label %31, label %26

26:                                               ; preds = %EC_POINT_copy.exit.thread22
  %27 = getelementptr inbounds nuw i8, ptr %0, i64 40
  %28 = tail call ptr @BN_copy(ptr noundef nonnull %27, ptr noundef %3) #11
  %29 = icmp ne ptr %28, null
  %30 = zext i1 %29 to i32
  br label %31

31:                                               ; preds = %EC_POINT_copy.exit.thread, %EC_POINT_new.exit.thread, %EC_POINT_copy.exit, %EC_POINT_copy.exit.thread22, %26, %4, %7
  %.0 = phi i32 [ 0, %7 ], [ 0, %4 ], [ 0, %EC_POINT_copy.exit.thread22 ], [ 0, %EC_POINT_copy.exit ], [ %30, %26 ], [ 0, %EC_POINT_new.exit.thread ], [ 0, %EC_POINT_copy.exit.thread ]
  ret i32 %.0
}